target datalayout = "e-m:e-p270:32:32-p271:32:32-p272:64:64-i64:64-i128:128-f80:128-n8:16:32:64-S128"
target triple = "x86_64-pc-linux-gnu"

; Function Attrs: nounwind uwtable
define dso_local i64 @clamp_cardinality_to_long(double noundef %0) #0 {
  %2 = alloca i64, align 8
  %3 = alloca double, align 8
  store double %0, ptr %3, align 8
  %4 = load double, ptr %3, align 8
  %5 = call i1 @llvm.is.fpclass.f64(double %4, i32 3)
  br i1 %5, label %6, label %7

6:                                                ; preds = %1
  store i64 9223372036854775807, ptr %2, align 8
  br label %20

7:                                                ; preds = %1
  %8 = load double, ptr %3, align 8
  %9 = fcmp ole double %8, 0.000000e+00
  br i1 %9, label %10, label %11

10:                                               ; preds = %7
  store i64 0, ptr %2, align 8
  br label %20

11:                                               ; preds = %7
  %12 = load double, ptr %3, align 8
  %13 = fcmp olt double %12, 0x43E0000000000000
  br i1 %13, label %14, label %17

14:                                               ; preds = %11
  %15 = load double, ptr %3, align 8
  %16 = fptosi double %15 to i64
  br label %18

17:                                               ; preds = %11
  br label %18

18:                                               ; preds = %17, %14
  %19 = phi i64 [ %16, %14 ], [ 9223372036854775807, %17 ]
  store i64 %19, ptr %2, align 8
  br label %20

20:                                               ; preds = %18, %10, %6
  %21 = load i64, ptr %2, align 8
  ret i64 %21
}