; Function Attrs: mustprogress nofree norecurse nosync nounwind willreturn memory(none) uwtable
define dso_local i64 @clamp_cardinality_to_long(double noundef %0) local_unnamed_addr #0 {
  %2 = fcmp uno double %0, 0.000000e+00
  br i1 %2, label %9, label %3

3:                                                ; preds = %1
  %4 = fcmp ugt double %0, 0.000000e+00
  br i1 %4, label %5, label %9

5:                                                ; preds = %3
  %6 = fcmp olt double %0, 0x43E0000000000000
  %7 = fptosi double %0 to i64
  %8 = select i1 %6, i64 %7, i64 9223372036854775807
  br label %9

9:                                                ; preds = %3, %1, %5
  %.0 = phi i64 [ %8, %5 ], [ 9223372036854775807, %1 ], [ 0, %3 ]
  ret i64 %.0
}